; Function Attrs: mustprogress uwtable
define hidden void @_ZN13expr_replacer18apply_substitutionEP4exprS1_P3appR7obj_refIS0_11ast_managerE(ptr noundef nonnull align 8 dereferenceable(8) %0, ptr noundef %1, ptr noundef %2, ptr noundef %3, ptr noundef nonnull align 8 dereferenceable(16) %4) local_unnamed_addr #3 align 2 personality ptr @__gxx_personality_v0 {
  %6 = alloca %class.obj_ref.26, align 8
  %7 = alloca %class.expr_substitution, align 8
  call void @llvm.lifetime.start.p0(i64 56, ptr nonnull %7) #18
  %8 = load ptr, ptr %0, align 8, !tbaa !3
  %9 = getelementptr inbounds nuw i8, ptr %8, i64 16
  %10 = load ptr, ptr %9, align 8
  %11 = tail call noundef nonnull align 8 dereferenceable(976) ptr %10(ptr noundef nonnull align 8 dereferenceable(8) %0)
  call void @_ZN17expr_substitutionC1ER11ast_manager(ptr noundef nonnull align 8 dereferenceable(49) %7, ptr noundef nonnull align 8 dereferenceable(976) %11)
  invoke void @_ZN17expr_substitution6insertEP4exprS1_P3appPN18dependency_managerIN11ast_manager22expr_dependency_configEE10dependencyE(ptr noundef nonnull align 8 dereferenceable(49) %7, ptr noundef %1, ptr noundef %2, ptr noundef %3, ptr noundef null)
          to label %12 unwind label %44

12:                                               ; preds = %5
  %13 = load ptr, ptr %0, align 8, !tbaa !3
  %14 = getelementptr inbounds nuw i8, ptr %13, i64 24
  %15 = load ptr, ptr %14, align 8
  invoke void %15(ptr noundef nonnull align 8 dereferenceable(8) %0, ptr noundef nonnull align 8 dereferenceable(49) %7)
          to label %_ZN13expr_replacer16scoped_set_substC2ERS_R17expr_substitution.exit unwind label %46

_ZN13expr_replacer16scoped_set_substC2ERS_R17expr_substitution.exit: ; preds = %12
  call void @llvm.lifetime.start.p0(i64 16, ptr nonnull %6) #18
  %16 = load ptr, ptr %4, align 8, !tbaa !21
  %17 = load ptr, ptr %0, align 8, !tbaa !3
  %18 = getelementptr inbounds nuw i8, ptr %17, i64 16
  %19 = load ptr, ptr %18, align 8
  %20 = invoke noundef nonnull align 8 dereferenceable(976) ptr %19(ptr noundef nonnull align 8 dereferenceable(8) %0)
          to label %.noexc unwind label %48

.noexc:                                           ; preds = %_ZN13expr_replacer16scoped_set_substC2ERS_R17expr_substitution.exit
  store ptr %16, ptr %6, align 8, !tbaa !21
  %21 = getelementptr inbounds nuw i8, ptr %6, i64 8
  store ptr %20, ptr %21, align 8, !tbaa !12
  %.not.i.i.i = icmp eq ptr %16, null
  br i1 %.not.i.i.i, label %_ZN7obj_refI4expr11ast_managerEC2EPS0_RS1_.exit.i, label %_ZN11ast_manager7inc_refEP3ast.exit.i.i.i

_ZN11ast_manager7inc_refEP3ast.exit.i.i.i:        ; preds = %.noexc
  %22 = getelementptr inbounds nuw i8, ptr %16, i64 8
  %23 = load i32, ptr %22, align 4, !tbaa !18
  %24 = add i32 %23, 1
  store i32 %24, ptr %22, align 4, !tbaa !18
  br label %_ZN7obj_refI4expr11ast_managerEC2EPS0_RS1_.exit.i

_ZN7obj_refI4expr11ast_managerEC2EPS0_RS1_.exit.i: ; preds = %_ZN11ast_manager7inc_refEP3ast.exit.i.i.i, %.noexc
  invoke void @_ZN13expr_replacerclEP4exprR7obj_refIS0_11ast_managerE(ptr noundef nonnull align 8 dereferenceable(8) %0, ptr noundef %16, ptr noundef nonnull align 8 dereferenceable(16) %4)
          to label %25 unwind label %35

25:                                               ; preds = %_ZN7obj_refI4expr11ast_managerEC2EPS0_RS1_.exit.i
  br i1 %.not.i.i.i, label %37, label %26

26:                                               ; preds = %25
  %27 = getelementptr inbounds nuw i8, ptr %16, i64 8
  %28 = load i32, ptr %27, align 4, !tbaa !18
  %29 = add i32 %28, -1
  store i32 %29, ptr %27, align 4, !tbaa !18
  %30 = icmp eq i32 %29, 0
  br i1 %30, label %31, label %37

31:                                               ; preds = %26
  invoke void @_ZN11ast_manager11delete_nodeEP3ast(ptr noundef nonnull align 8 dereferenceable(976) %20, ptr noundef nonnull %16)
          to label %37 unwind label %32

32:                                               ; preds = %31
  %33 = landingpad { ptr, i32 }
          catch ptr null
  %34 = extractvalue { ptr, i32 } %33, 0
  call void @__clang_call_terminate(ptr %34) #19
  unreachable

35:                                               ; preds = %_ZN7obj_refI4expr11ast_managerEC2EPS0_RS1_.exit.i
  %36 = landingpad { ptr, i32 }
          cleanup
  call void @_ZN7obj_refI4expr11ast_managerED2Ev(ptr noundef nonnull align 8 dereferenceable(16) %6) #18
  call void @llvm.lifetime.end.p0(i64 16, ptr nonnull %6) #18
  br label %.body

37:                                               ; preds = %31, %26, %25
  call void @llvm.lifetime.end.p0(i64 16, ptr nonnull %6) #18
  %38 = load ptr, ptr %0, align 8, !tbaa !3
  %39 = getelementptr inbounds nuw i8, ptr %38, i64 24
  %40 = load ptr, ptr %39, align 8
  invoke void %40(ptr noundef nonnull align 8 dereferenceable(8) %0, ptr noundef null)
          to label %_ZN13expr_replacer16scoped_set_substD2Ev.exit unwind label %41

41:                                               ; preds = %37
  %42 = landingpad { ptr, i32 }
          catch ptr null
  %43 = extractvalue { ptr, i32 } %42, 0
  call void @__clang_call_terminate(ptr %43) #19
  unreachable

_ZN13expr_replacer16scoped_set_substD2Ev.exit:    ; preds = %37
  call void @_ZN17expr_substitutionD1Ev(ptr noundef nonnull align 8 dereferenceable(49) %7) #18
  call void @llvm.lifetime.end.p0(i64 56, ptr nonnull %7) #18
  ret void

44:                                               ; preds = %5
  %45 = landingpad { ptr, i32 }
          cleanup
  br label %_ZN13expr_replacer16scoped_set_substD2Ev.exit10

46:                                               ; preds = %12
  %47 = landingpad { ptr, i32 }
          cleanup
  br label %_ZN13expr_replacer16scoped_set_substD2Ev.exit10

48:                                               ; preds = %_ZN13expr_replacer16scoped_set_substC2ERS_R17expr_substitution.exit
  %49 = landingpad { ptr, i32 }
          cleanup
  br label %.body

.body:                                            ; preds = %35, %48
  %eh.lpad-body = phi { ptr, i32 } [ %49, %48 ], [ %36, %35 ]
  %50 = load ptr, ptr %0, align 8, !tbaa !3
  %51 = getelementptr inbounds nuw i8, ptr %50, i64 24
  %52 = load ptr, ptr %51, align 8
  invoke void %52(ptr noundef nonnull align 8 dereferenceable(8) %0, ptr noundef null)
          to label %_ZN13expr_replacer16scoped_set_substD2Ev.exit10 unwind label %53

53:                                               ; preds = %.body
  %54 = landingpad { ptr, i32 }
          catch ptr null
  %55 = extractvalue { ptr, i32 } %54, 0
  call void @__clang_call_terminate(ptr %55) #19
  unreachable

_ZN13expr_replacer16scoped_set_substD2Ev.exit10:  ; preds = %46, %.body, %44
  %.pn.pn = phi { ptr, i32 } [ %45, %44 ], [ %47, %46 ], [ %eh.lpad-body, %.body ]
  call void @_ZN17expr_substitutionD1Ev(ptr noundef nonnull align 8 dereferenceable(49) %7) #18
  call void @llvm.lifetime.end.p0(i64 56, ptr nonnull %7) #18
  resume { ptr, i32 } %.pn.pn
}